ccopy_reg
_reconstructor
p0
(csklearn.linear_model.stochastic_gradient
SGDClassifier
p1
c__builtin__
object
p2
Ntp3
Rp4
(dp5
S't_'
p6
cnumpy.core.multiarray
scalar
p7
(cnumpy
dtype
p8
(S'f8'
p9
I0
I1
tp10
Rp11
(I3
S'<'
p12
NNNI-1
I-1
I0
tp13
bS'\x00\x00\x00\x00\x00\xbf\xc1@'
p14
tp15
Rp16
sS'n_jobs'
p17
I1
sS'shuffle'
p18
I00
sS'verbose'
p19
I0
sS'classes_'
p20
cnumpy.core.multiarray
_reconstruct
p21
(cnumpy
ndarray
p22
(I0
tp23
S'b'
p24
tp25
Rp26
(I1
(I2
tp27
g8
(S'S1'
p28
I0
I1
tp29
Rp30
(I3
S'|'
p31
NNNI1
I1
I0
tp32
bI00
S'01'
p33
tp34
bsS'class_weight'
p35
NsS'fit_intercept'
p36
I01
sS'penalty'
p37
S'l2'
p38
sS'random_state'
p39
NsS'loss_function'
p40
csklearn.linear_model.sgd_fast
Hinge
p41
(F1.0
tp42
Rp43
sS'C'
p44
F1.0
sS'n_iter'
p45
I5
sS'epsilon'
p46
F0.1
sS'learning_rate'
p47
S'optimal'
p48
sS'coef_'
p49
g21
(g22
(I0
tp50
g24
tp51
Rp52
(I1
(I1
I3
tp53
g11
I00
S'\xc0\x9d\xc9\xd1\x87\x9c\xf1\xbf\x89\x9d\xc9\xd1\x87\x9c\xf1\xbf\xc2\x9d\xc9\xd1\x87\x9c\xf1\xbf'
p54
tp55
bsS'alpha'
p56
F0.0001
sS'intercept_'
p57
g21
(g22
(I0
tp58
g24
tp59
Rp60
(I1
(I1
tp61
g11
I00
S'\x10w\xac6\xab\x02\xf0\xbf'
p62
tp63
bsS'_expanded_class_weight'
p64
g21
(g22
(I0
tp65
g24
tp66
Rp67
(I1
(I2
tp68
g11
I00
S'\x00\x00\x00\x00\x00\x00\xf0?\x00\x00\x00\x00\x00\x00\xf0?'
p69
tp70
bsS'warm_start'
p71
I00
sS'loss'
p72
S'hinge'
p73
sS'eta0'
p74
F0.0
sS'l1_ratio'
p75
F0.15
sS'power_t'
p76
F0.5
sb.